; Function Attrs: mustprogress uwtable
define internal fastcc void @_ZL23cq_finish_shutdown_nextP21grpc_completion_queue(ptr noundef %0) unnamed_addr #8 personality ptr @__gxx_personality_v0 {
  %2 = alloca %"class.absl::lts_20240722::log_internal::LogMessageFatal", align 8
  %3 = alloca %"class.absl::lts_20240722::log_internal::LogMessageFatal", align 8
  %4 = getelementptr inbounds nuw i8, ptr %0, i64 376
  %5 = load i8, ptr %4, align 8, !tbaa !63, !range !56, !noundef !57
  %6 = trunc nuw i8 %5 to i1
  br i1 %6, label %.critedge, label %7, !prof !72

7:                                                ; preds = %1
  call void @llvm.lifetime.start.p0(i64 16, ptr nonnull %2) #36
  call void @_ZN4absl12lts_2024072212log_internal15LogMessageFatalC1EPKciSt17basic_string_viewIcSt11char_traitsIcEE(ptr noundef nonnull align 8 dereferenceable(16) %2, ptr noundef nonnull @.str, i32 noundef 1058, i64 20, ptr nonnull @.str.32) #38
  call void @_ZN4absl12lts_2024072212log_internal15LogMessageFatalD1Ev(ptr noundef nonnull align 8 dereferenceable(16) %2) #37
  unreachable

.critedge:                                        ; preds = %1
  %8 = getelementptr inbounds nuw i8, ptr %0, i64 368
  %9 = load atomic i64, ptr %8 monotonic, align 8
  %10 = icmp eq i64 %9, 0
  br i1 %10, label %11, label %23, !prof !72

11:                                               ; preds = %.critedge
  %12 = getelementptr inbounds nuw i8, ptr %0, i64 264
  %13 = getelementptr inbounds nuw i8, ptr %0, i64 216
  %14 = load ptr, ptr %13, align 8, !tbaa !52
  %15 = getelementptr inbounds nuw i8, ptr %14, i64 40
  %16 = load ptr, ptr %15, align 8, !tbaa !73
  %17 = getelementptr inbounds nuw i8, ptr %0, i64 144
  %18 = load ptr, ptr %17, align 8, !tbaa !48
  %19 = getelementptr inbounds nuw i8, ptr %18, i64 8
  %20 = load i64, ptr %19, align 8, !tbaa !55
  %21 = getelementptr inbounds nuw i8, ptr %12, i64 %20
  %22 = getelementptr inbounds nuw i8, ptr %0, i64 224
  tail call void %16(ptr noundef nonnull %21, ptr noundef nonnull %22)
  ret void

23:                                               ; preds = %.critedge
  %24 = tail call noundef nonnull ptr @_ZN4absl12lts_2024072212log_internal17MakeCheckOpStringIllEEPNSt7__cxx1112basic_stringIcSt11char_traitsIcESaIcEEET_T0_PKc(i64 noundef %9, i64 noundef 0, ptr noundef nonnull @.str.44)
  call void @llvm.lifetime.start.p0(i64 16, ptr nonnull %3) #36
  %25 = load ptr, ptr %24, align 8, !tbaa !74
  %26 = getelementptr inbounds nuw i8, ptr %24, i64 8
  %27 = load i64, ptr %26, align 8, !tbaa !78
  call void @_ZN4absl12lts_2024072212log_internal15LogMessageFatalC1EPKciSt17basic_string_viewIcSt11char_traitsIcEE(ptr noundef nonnull align 8 dereferenceable(16) %3, ptr noundef nonnull @.str, i32 noundef 1059, i64 %27, ptr %25) #38
  call void @_ZN4absl12lts_2024072212log_internal15LogMessageFatalD1Ev(ptr noundef nonnull align 8 dereferenceable(16) %3) #37
  unreachable
}